Certificate:
    Data:
        Version: 3 (0x2)
        Serial Number:
            2b:bc:ba:90:4b:4d:be:25:3b:dc:11:6f:37:80:e8:49
    Signature Algorithm: sha256WithRSAEncryption
        Issuer: CN=Easy-RSA CA
        Validity
            Not Before: Apr  3 13:35:59 2020 GMT
            Not After : Mar 19 13:35:59 2023 GMT
        Subject: CN=liuliu
        Subject Public Key Info:
            Public Key Algorithm: rsaEncryption
                Public-Key: (2048 bit)
                Modulus:
                    00:ba:6f:b1:b2:7d:cf:fb:45:3b:60:64:3e:95:05:
                    eb:b2:67:80:05:cf:42:bc:a5:a8:28:9d:14:79:72:
                    54:dd:69:93:c2:69:b1:f8:fe:96:23:23:8e:c8:cd:
                    26:be:d8:e5:9c:97:38:3b:2d:fc:d6:68:af:77:cb:
                    8b:48:17:48:07:d6:b7:9f:8e:8b:7a:27:e0:1f:0b:
                    6b:eb:24:fd:38:82:4f:a7:31:c9:d5:66:15:4f:35:
                    37:43:ff:cd:90:d3:82:d5:5c:b5:32:d6:4a:f3:83:
                    08:5a:c8:1b:16:59:2b:cf:2b:78:32:9b:85:7c:bd:
                    a1:2c:85:aa:79:e4:84:bb:0e:ab:4c:61:70:ca:e4:
                    fd:6b:98:af:57:5e:64:83:46:96:b8:04:2e:db:bf:
                    b6:67:9e:7e:43:43:16:89:fe:55:8f:4d:5f:2d:cb:
                    b4:e2:63:aa:35:ad:85:eb:47:ca:46:76:b7:f9:8a:
                    83:1f:65:3d:03:19:58:98:ee:2a:49:33:f3:63:88:
                    b2:db:e4:f0:08:f5:d8:73:6c:08:37:d1:53:c4:95:
                    e8:31:ed:c5:8d:7c:1e:76:93:b9:dd:c1:40:9b:d3:
                    98:7d:d4:3d:04:81:3a:80:07:78:49:48:71:17:d4:
                    5d:22:29:09:03:0e:17:c9:ba:b4:20:1b:00:9b:0a:
                    75:41
                Exponent: 65537 (0x10001)
        X509v3 extensions:
            X509v3 Basic Constraints: 
                CA:FALSE
            X509v3 Subject Key Identifier: 
                F7:8E:97:30:B1:03:BB:10:EB:AD:A7:37:D3:63:63:0E:87:96:E2:F9
            X509v3 Authority Key Identifier: 
                keyid:45:CF:2E:EF:E1:78:9E:CC:5C:83:32:97:D6:2C:F0:84:C6:BE:B5:C8
                DirName:/CN=Easy-RSA CA
                serial:C1:C3:74:5C:CC:1C:5C:61

            X509v3 Extended Key Usage: 
                TLS Web Client Authentication
            X509v3 Key Usage: 
                Digital Signature
    Signature Algorithm: sha256WithRSAEncryption
         8e:00:4b:ce:52:18:1c:bb:df:ff:31:05:8a:0e:05:77:cd:77:
         fd:ae:02:e1:6e:d4:7e:eb:40:d5:24:e6:53:7c:c7:e2:ce:8a:
         c1:6c:fa:55:96:e9:d8:9c:75:7f:96:d3:dc:dc:3f:9d:38:63:
         9b:a7:2c:c4:d7:a1:b9:f8:69:a2:9d:43:69:f2:5b:72:ee:1c:
         04:2b:79:0a:9b:72:54:be:9e:c2:ec:81:96:15:4e:fc:ea:61:
         33:78:24:61:d3:af:13:ff:88:e9:43:7a:ac:a2:19:28:ac:6c:
         02:be:b9:27:53:ce:d0:68:92:5e:2b:cb:c0:ef:c2:3d:15:43:
         f6:9b:ff:01:07:4a:38:5e:a8:cd:f6:63:46:c8:75:78:49:2f:
         61:9b:4b:26:2e:0b:29:d5:d0:2b:3c:bd:b0:7f:80:41:95:cb:
         b0:b5:bc:92:da:56:61:0b:07:6a:f1:e9:12:b5:90:30:f6:21:
         c1:db:13:fb:d4:2b:64:26:8e:dd:82:3b:d7:81:1b:98:4d:6f:
         e0:f2:c7:5a:6d:16:51:15:a1:28:41:5b:77:22:19:9d:76:f3:
         04:66:32:a8:89:52:1f:1d:b9:bd:e4:e8:02:79:a9:03:88:20:
         48:21:82:db:cf:8a:32:0f:f5:d9:0e:7f:bf:34:c3:12:50:bb:
         8a:3c:2d:c8
-----BEGIN CERTIFICATE-----
MIIDSTCCAjGgAwIBAgIQK7y6kEtNviU73BFvN4DoSTANBgkqhkiG9w0BAQsFADAW
MRQwEgYDVQQDDAtFYXN5LVJTQSBDQTAeFw0yMDA0MDMxMzM1NTlaFw0yMzAzMTkx
MzM1NTlaMBExDzANBgNVBAMMBmxpdWxpdTCCASIwDQYJKoZIhvcNAQEBBQADggEP
ADCCAQoCggEBALpvsbJ9z/tFO2BkPpUF67JngAXPQrylqCidFHlyVN1pk8Jpsfj+
liMjjsjNJr7Y5ZyXODst/NZor3fLi0gXSAfWt5+Oi3on4B8La+sk/TiCT6cxydVm
FU81N0P/zZDTgtVctTLWSvODCFrIGxZZK88reDKbhXy9oSyFqnnkhLsOq0xhcMrk
/WuYr1deZINGlrgELtu/tmeefkNDFon+VY9NXy3LtOJjqjWthetHykZ2t/mKgx9l
PQMZWJjuKkkz82OIstvk8Aj12HNsCDfRU8SV6DHtxY18HnaTud3BQJvTmH3UPQSB
OoAHeElIcRfUXSIpCQMOF8m6tCAbAJsKdUECAwEAAaOBlzCBlDAJBgNVHRMEAjAA
MB0GA1UdDgQWBBT3jpcwsQO7EOutpzfTY2MOh5bi+TBGBgNVHSMEPzA9gBRFzy7v
4XiezFyDMpfWLPCExr61yKEapBgwFjEUMBIGA1UEAwwLRWFzeS1SU0EgQ0GCCQDB
w3RczBxcYTATBgNVHSUEDDAKBggrBgEFBQcDAjALBgNVHQ8EBAMCB4AwDQYJKoZI
hvcNAQELBQADggEBAI4AS85SGBy73/8xBYoOBXfNd/2uAuFu1H7rQNUk5lN8x+LO
isFs+lWW6dicdX+W09zcP504Y5unLMTXobn4aaKdQ2nyW3LuHAQreQqbclS+nsLs
gZYVTvzqYTN4JGHTrxP/iOlDeqyiGSisbAK+uSdTztBokl4ry8Dvwj0VQ/ab/wEH
SjheqM32Y0bIdXhJL2GbSyYuCynV0Cs8vbB/gEGVy7C1vJLaVmELB2rx6RK1kDD2
IcHbE/vUK2Qmjt2CO9eBG5hNb+Dyx1ptFlEVoShBW3ciGZ128wRmMqiJUh8dub3k
6AJ5qQOIIEghgtvPijIP9dkOf780wxJQu4o8Lcg=
-----END CERTIFICATE-----
